target datalayout = "e-m:e-p270:32:32-p271:32:32-p272:64:64-i64:64-i128:128-f80:128-n8:16:32:64-S128"
target triple = "x86_64-pc-linux-gnu"

%struct.ruby_features_t = type { i32, i32 }

@debug_option.list = internal constant [22 x i8] c"frozen_string_literal\00", align 16
@.str.99 = private unnamed_addr constant [22 x i8] c"frozen_string_literal\00", align 1
@.str.100 = private unnamed_addr constant [37 x i8] c"unknown argument for --debug: '%.*s'\00", align 1
@.str.101 = private unnamed_addr constant [27 x i8] c"debug features are [%.*s].\00", align 1

; Function Attrs: inlinehint nounwind sspstrong willreturn memory(none) uwtable
define internal i32 @rb_islower(i32 noundef %0) #13 {
  %2 = alloca i32, align 4
  store i32 %0, ptr %2, align 4, !tbaa !12
  %3 = load i32, ptr %2, align 4, !tbaa !12
  %4 = icmp sle i32 97, %3
  br i1 %4, label %5, label %8

5:                                                ; preds = %1
  %6 = load i32, ptr %2, align 4, !tbaa !12
  %7 = icmp sle i32 %6, 122
  br label %8

8:                                                ; preds = %5, %1
  %9 = phi i1 [ false, %1 ], [ %7, %5 ]
  %10 = zext i1 %9 to i32
  ret i32 %10
}

; Function Attrs: inlinehint nounwind sspstrong willreturn memory(none) uwtable
define internal i32 @rb_isdigit(i32 noundef %0) #13 {
  %2 = alloca i32, align 4
  store i32 %0, ptr %2, align 4, !tbaa !12
  %3 = load i32, ptr %2, align 4, !tbaa !12
  %4 = icmp sle i32 48, %3
  br i1 %4, label %5, label %8

5:                                                ; preds = %1
  %6 = load i32, ptr %2, align 4, !tbaa !12
  %7 = icmp sle i32 %6, 57
  br label %8

8:                                                ; preds = %5, %1
  %9 = phi i1 [ false, %1 ], [ %7, %5 ]
  %10 = zext i1 %9 to i32
  ret i32 %10
}

; Function Attrs: inlinehint nounwind sspstrong willreturn memory(none) uwtable
define internal i32 @rb_isalpha(i32 noundef %0) #13 {
  %2 = alloca i32, align 4
  store i32 %0, ptr %2, align 4, !tbaa !12
  %3 = load i32, ptr %2, align 4, !tbaa !12
  %4 = call i32 @rb_isupper(i32 noundef %3) #27
  %5 = icmp ne i32 %4, 0
  br i1 %5, label %10, label %6

6:                                                ; preds = %1
  %7 = load i32, ptr %2, align 4, !tbaa !12
  %8 = call i32 @rb_islower(i32 noundef %7) #27
  %9 = icmp ne i32 %8, 0
  br label %10

10:                                               ; preds = %6, %1
  %11 = phi i1 [ true, %1 ], [ %9, %6 ]
  %12 = zext i1 %11 to i32
  ret i32 %12
}

; Function Attrs: inlinehint nounwind sspstrong willreturn memory(none) uwtable
define internal i32 @rb_isupper(i32 noundef %0) #13 {
  %2 = alloca i32, align 4
  store i32 %0, ptr %2, align 4, !tbaa !12
  %3 = load i32, ptr %2, align 4, !tbaa !12
  %4 = icmp sle i32 65, %3
  br i1 %4, label %5, label %8

5:                                                ; preds = %1
  %6 = load i32, ptr %2, align 4, !tbaa !12
  %7 = icmp sle i32 %6, 90
  br label %8

8:                                                ; preds = %5, %1
  %9 = phi i1 [ false, %1 ], [ %7, %5 ]
  %10 = zext i1 %9 to i32
  ret i32 %10
}

; Function Attrs: inlinehint nounwind sspstrong willreturn memory(none) uwtable
define internal i32 @rb_isalnum(i32 noundef %0) #13 {
  %2 = alloca i32, align 4
  store i32 %0, ptr %2, align 4, !tbaa !12
  %3 = load i32, ptr %2, align 4, !tbaa !12
  %4 = call i32 @rb_isalpha(i32 noundef %3) #27
  %5 = icmp ne i32 %4, 0
  br i1 %5, label %10, label %6

6:                                                ; preds = %1
  %7 = load i32, ptr %2, align 4, !tbaa !12
  %8 = call i32 @rb_isdigit(i32 noundef %7) #27
  %9 = icmp ne i32 %8, 0
  br label %10

10:                                               ; preds = %6, %1
  %11 = phi i1 [ true, %1 ], [ %9, %6 ]
  %12 = zext i1 %11 to i32
  ret i32 %12
}

; Function Attrs: inlinehint nounwind sspstrong willreturn memory(none) uwtable
define internal i32 @rb_tolower(i32 noundef %0) #13 {
  %2 = alloca i32, align 4
  store i32 %0, ptr %2, align 4, !tbaa !12
  %3 = load i32, ptr %2, align 4, !tbaa !12
  %4 = call i32 @rb_isupper(i32 noundef %3) #27
  %5 = icmp ne i32 %4, 0
  br i1 %5, label %6, label %9

6:                                                ; preds = %1
  %7 = load i32, ptr %2, align 4, !tbaa !12
  %8 = or i32 %7, 32
  br label %11

9:                                                ; preds = %1
  %10 = load i32, ptr %2, align 4, !tbaa !12
  br label %11

11:                                               ; preds = %9, %6
  %12 = phi i32 [ %8, %6 ], [ %10, %9 ]
  ret i32 %12
}

; Function Attrs: inlinehint nounwind sspstrong uwtable
define internal void @rb_feature_set_to(ptr noundef %0, i32 noundef %1, i32 noundef %2) #5 {
  %4 = alloca ptr, align 8
  %5 = alloca i32, align 4
  %6 = alloca i32, align 4
  store ptr %0, ptr %4, align 8, !tbaa !17
  store i32 %1, ptr %5, align 4, !tbaa !12
  store i32 %2, ptr %6, align 4, !tbaa !12
  %7 = load i32, ptr %5, align 4, !tbaa !12
  %8 = load ptr, ptr %4, align 8, !tbaa !17
  %9 = getelementptr inbounds nuw %struct.ruby_features_t, ptr %8, i32 0, i32 0
  %10 = load i32, ptr %9, align 4, !tbaa !158
  %11 = or i32 %10, %7
  store i32 %11, ptr %9, align 4, !tbaa !158
  %12 = load ptr, ptr %4, align 8, !tbaa !17
  %13 = getelementptr inbounds nuw %struct.ruby_features_t, ptr %12, i32 0, i32 1
  %14 = load i32, ptr %13, align 4, !tbaa !159
  %15 = load i32, ptr %5, align 4, !tbaa !12
  %16 = xor i32 %15, -1
  %17 = and i32 %14, %16
  %18 = load i32, ptr %6, align 4, !tbaa !12
  %19 = or i32 %17, %18
  %20 = load ptr, ptr %4, align 8, !tbaa !17
  %21 = getelementptr inbounds nuw %struct.ruby_features_t, ptr %20, i32 0, i32 1
  store i32 %19, ptr %21, align 4, !tbaa !159
  ret void
}

; Function Attrs: nounwind sspstrong uwtable
define internal i32 @name_match_p(ptr noundef %0, ptr noundef %1, i64 noundef %2) #0 {
  %4 = alloca i32, align 4
  %5 = alloca ptr, align 8
  %6 = alloca ptr, align 8
  %7 = alloca i64, align 8
  store ptr %0, ptr %5, align 8, !tbaa !7
  store ptr %1, ptr %6, align 8, !tbaa !7
  store i64 %2, ptr %7, align 8, !tbaa !42
  %8 = load i64, ptr %7, align 8, !tbaa !42
  %9 = icmp eq i64 %8, 0
  br i1 %9, label %10, label %11

10:                                               ; preds = %3
  store i32 0, ptr %4, align 4
  br label %78

11:                                               ; preds = %3
  br label %12

12:                                               ; preds = %11, %77
  br label %13

13:                                               ; preds = %27, %12
  %14 = load ptr, ptr %6, align 8, !tbaa !7
  %15 = load i8, ptr %14, align 1, !tbaa !14
  %16 = sext i8 %15 to i32
  %17 = call i32 @rb_tolower(i32 noundef %16) #27
  %18 = load ptr, ptr %5, align 8, !tbaa !7
  %19 = load i8, ptr %18, align 1, !tbaa !14
  %20 = sext i8 %19 to i32
  %21 = icmp eq i32 %17, %20
  br i1 %21, label %22, label %32

22:                                               ; preds = %13
  %23 = load i64, ptr %7, align 8, !tbaa !42
  %24 = add i64 %23, -1
  store i64 %24, ptr %7, align 8, !tbaa !42
  %25 = icmp ne i64 %24, 0
  br i1 %25, label %27, label %26

26:                                               ; preds = %22
  store i32 1, ptr %4, align 4
  br label %78

27:                                               ; preds = %22
  %28 = load ptr, ptr %5, align 8, !tbaa !7
  %29 = getelementptr i8, ptr %28, i32 1
  store ptr %29, ptr %5, align 8, !tbaa !7
  %30 = load ptr, ptr %6, align 8, !tbaa !7
  %31 = getelementptr i8, ptr %30, i32 1
  store ptr %31, ptr %6, align 8, !tbaa !7
  br label %13, !llvm.loop !166

32:                                               ; preds = %13
  %33 = load ptr, ptr %6, align 8, !tbaa !7
  %34 = load i8, ptr %33, align 1, !tbaa !14
  %35 = sext i8 %34 to i32
  %36 = icmp ne i32 %35, 45
  br i1 %36, label %37, label %43

37:                                               ; preds = %32
  %38 = load ptr, ptr %6, align 8, !tbaa !7
  %39 = load i8, ptr %38, align 1, !tbaa !14
  %40 = sext i8 %39 to i32
  %41 = icmp ne i32 %40, 95
  br i1 %41, label %42, label %43

42:                                               ; preds = %37
  store i32 0, ptr %4, align 4
  br label %78

43:                                               ; preds = %37, %32
  br label %44

44:                                               ; preds = %50, %43
  %45 = load ptr, ptr %5, align 8, !tbaa !7
  %46 = load i8, ptr %45, align 1, !tbaa !14
  %47 = sext i8 %46 to i32
  %48 = call i32 @rb_isalnum(i32 noundef %47) #27
  %49 = icmp ne i32 %48, 0
  br i1 %49, label %50, label %53

50:                                               ; preds = %44
  %51 = load ptr, ptr %5, align 8, !tbaa !7
  %52 = getelementptr i8, ptr %51, i32 1
  store ptr %52, ptr %5, align 8, !tbaa !7
  br label %44, !llvm.loop !167

53:                                               ; preds = %44
  %54 = load ptr, ptr %5, align 8, !tbaa !7
  %55 = load i8, ptr %54, align 1, !tbaa !14
  %56 = sext i8 %55 to i32
  %57 = icmp ne i32 %56, 45
  br i1 %57, label %58, label %64

58:                                               ; preds = %53
  %59 = load ptr, ptr %5, align 8, !tbaa !7
  %60 = load i8, ptr %59, align 1, !tbaa !14
  %61 = sext i8 %60 to i32
  %62 = icmp ne i32 %61, 95
  br i1 %62, label %63, label %64

63:                                               ; preds = %58
  store i32 0, ptr %4, align 4
  br label %78

64:                                               ; preds = %58, %53
  %65 = load ptr, ptr %5, align 8, !tbaa !7
  %66 = getelementptr i8, ptr %65, i32 1
  store ptr %66, ptr %5, align 8, !tbaa !7
  %67 = load i8, ptr %66, align 1, !tbaa !14
  %68 = icmp ne i8 %67, 0
  br i1 %68, label %70, label %69

69:                                               ; preds = %64
  store i32 1, ptr %4, align 4
  br label %78

70:                                               ; preds = %64
  %71 = load ptr, ptr %6, align 8, !tbaa !7
  %72 = getelementptr i8, ptr %71, i32 1
  store ptr %72, ptr %6, align 8, !tbaa !7
  %73 = load i64, ptr %7, align 8, !tbaa !42
  %74 = add i64 %73, -1
  store i64 %74, ptr %7, align 8, !tbaa !42
  %75 = icmp eq i64 %74, 0
  br i1 %75, label %76, label %77

76:                                               ; preds = %70
  store i32 1, ptr %4, align 4
  br label %78

77:                                               ; preds = %70
  br label %12

78:                                               ; preds = %76, %69, %63, %42, %26, %10
  %79 = load i32, ptr %4, align 4
  ret i32 %79
}

; Function Attrs: nounwind sspstrong uwtable
define internal void @debug_option(ptr noundef %0, i32 noundef %1, ptr noundef %2) #0 {
  %4 = alloca ptr, align 8
  %5 = alloca i32, align 4
  %6 = alloca ptr, align 8
  %7 = alloca ptr, align 8
  %8 = alloca i32, align 4
  store ptr %0, ptr %4, align 8, !tbaa !7
  store i32 %1, ptr %5, align 4, !tbaa !12
  store ptr %2, ptr %6, align 8, !tbaa !17
  call void @llvm.lifetime.start.p0(i64 8, ptr %7) #24
  %9 = load ptr, ptr %6, align 8, !tbaa !17
  store ptr %9, ptr %7, align 8, !tbaa !17
  %10 = load i32, ptr %5, align 4, !tbaa !12
  %11 = icmp slt i32 %10, 22
  br i1 %11, label %12, label %20

12:                                               ; preds = %3
  %13 = load ptr, ptr %4, align 8, !tbaa !7
  %14 = load i32, ptr %5, align 4, !tbaa !12
  %15 = sext i32 %14 to i64
  %16 = call i32 @name_match_p(ptr noundef @.str.99, ptr noundef %13, i64 noundef %15)
  %17 = icmp ne i32 %16, 0
  br i1 %17, label %18, label %20

18:                                               ; preds = %12
  %19 = load ptr, ptr %7, align 8, !tbaa !17
  call void @rb_feature_set_to(ptr noundef %19, i32 noundef 256, i32 noundef 256)
  store i32 1, ptr %8, align 4
  br label %23

20:                                               ; preds = %12, %3
  %21 = load i32, ptr %5, align 4, !tbaa !12
  %22 = load ptr, ptr %4, align 8, !tbaa !7
  call void (ptr, ...) @rb_warn(ptr noundef @.str.100, i32 noundef %21, ptr noundef %22) #28
  call void (ptr, ...) @rb_warn(ptr noundef @.str.101, i32 noundef 21, ptr noundef @debug_option.list) #28
  store i32 0, ptr %8, align 4
  br label %23

23:                                               ; preds = %20, %18
  call void @llvm.lifetime.end.p0(i64 8, ptr %7) #24
  %24 = load i32, ptr %8, align 4
  switch i32 %24, label %26 [
    i32 0, label %25
    i32 1, label %25
  ]

25:                                               ; preds = %23, %23
  ret void

26:                                               ; preds = %23
  unreachable
}