; Function Attrs: nounwind sspstrong uwtable
define internal void @debug_option(ptr noundef %0, i32 noundef %1, ptr noundef captures(none) %2) #0 {
  %4 = icmp sgt i32 %1, 21
  %5 = icmp eq i32 %1, 0
  %or.cond = or i1 %4, %5
  br i1 %or.cond, label %name_match_p.exit.thread, label %.preheader.i.preheader

.preheader.i.preheader:                           ; preds = %3
  %6 = sext i32 %1 to i64
  br label %.preheader.i

.preheader.i:                                     ; preds = %.preheader.i.preheader, %38
  %7 = phi i8 [ %39, %38 ], [ 102, %.preheader.i.preheader ]
  %.017.i = phi ptr [ %36, %38 ], [ @.str.99, %.preheader.i.preheader ]
  %.015.i = phi ptr [ %40, %38 ], [ %0, %.preheader.i.preheader ]
  %.0.i = phi i64 [ %41, %38 ], [ %6, %.preheader.i.preheader ]
  %8 = load i8, ptr %.015.i, align 1, !tbaa !7
  %9 = sext i8 %8 to i32
  %10 = add nsw i32 %9, -91
  %11 = icmp ult i32 %10, -26
  %12 = or i32 %9, 32
  %13 = select i1 %11, i32 %9, i32 %12
  %14 = sext i8 %7 to i32
  %15 = icmp eq i32 %13, %14
  br i1 %15, label %.lr.ph.i, label %._crit_edge.i

.lr.ph.i:                                         ; preds = %.preheader.i, %17
  %.141.i = phi i64 [ %16, %17 ], [ %.0.i, %.preheader.i ]
  %.11640.i = phi ptr [ %19, %17 ], [ %.015.i, %.preheader.i ]
  %.11839.i = phi ptr [ %18, %17 ], [ %.017.i, %.preheader.i ]
  %16 = add i64 %.141.i, -1
  %.not30.i = icmp eq i64 %16, 0
  br i1 %.not30.i, label %name_match_p.exit, label %17

17:                                               ; preds = %.lr.ph.i
  %18 = getelementptr i8, ptr %.11839.i, i64 1
  %19 = getelementptr i8, ptr %.11640.i, i64 1
  %20 = load i8, ptr %19, align 1, !tbaa !7
  %21 = sext i8 %20 to i32
  %22 = add nsw i32 %21, -91
  %23 = icmp ult i32 %22, -26
  %24 = or i32 %21, 32
  %25 = select i1 %23, i32 %21, i32 %24
  %26 = load i8, ptr %18, align 1, !tbaa !7
  %27 = sext i8 %26 to i32
  %28 = icmp eq i32 %25, %27
  br i1 %28, label %.lr.ph.i, label %._crit_edge.i, !llvm.loop !199

._crit_edge.i:                                    ; preds = %17, %.preheader.i
  %.118.lcssa.i = phi ptr [ %.017.i, %.preheader.i ], [ %18, %17 ]
  %.116.lcssa.i = phi ptr [ %.015.i, %.preheader.i ], [ %19, %17 ]
  %.1.lcssa.i = phi i64 [ %.0.i, %.preheader.i ], [ %16, %17 ]
  %.lcssa.i = phi i8 [ %8, %.preheader.i ], [ %20, %17 ]
  switch i8 %.lcssa.i, label %name_match_p.exit.thread [
    i8 45, label %.preheader
    i8 95, label %.preheader
  ]

.preheader:                                       ; preds = %._crit_edge.i, %._crit_edge.i
  br label %29

29:                                               ; preds = %.preheader, %29
  %.2.i = phi ptr [ %36, %29 ], [ %.118.lcssa.i, %.preheader ]
  %30 = load i8, ptr %.2.i, align 1, !tbaa !7
  %31 = sext i8 %30 to i32
  %32 = and i32 %31, -33
  %33 = add nsw i32 %32, -91
  %narrow.i.i.i = icmp ult i32 %33, -26
  %34 = add nsw i32 %31, -58
  %35 = icmp ult i32 %34, -10
  %narrow.i.not.i = select i1 %narrow.i.i.i, i1 %35, i1 false
  %36 = getelementptr i8, ptr %.2.i, i64 1
  br i1 %narrow.i.not.i, label %37, label %29, !llvm.loop !200

37:                                               ; preds = %29
  switch i8 %30, label %name_match_p.exit.thread [
    i8 45, label %38
    i8 95, label %38
  ]

38:                                               ; preds = %37, %37
  %39 = load i8, ptr %36, align 1, !tbaa !7
  %.not29.i = icmp eq i8 %39, 0
  %40 = getelementptr i8, ptr %.116.lcssa.i, i64 1
  %41 = add i64 %.1.lcssa.i, -1
  %42 = icmp eq i64 %41, 0
  %or.cond.i = select i1 %.not29.i, i1 true, i1 %42
  br i1 %or.cond.i, label %name_match_p.exit, label %.preheader.i

name_match_p.exit:                                ; preds = %38, %.lr.ph.i
  %43 = load i32, ptr %2, align 4, !tbaa !92
  %44 = or i32 %43, 256
  store i32 %44, ptr %2, align 4, !tbaa !92
  %45 = getelementptr inbounds nuw i8, ptr %2, i64 4
  %46 = load i32, ptr %45, align 4, !tbaa !93
  %47 = or i32 %46, 256
  store i32 %47, ptr %45, align 4, !tbaa !93
  br label %48

name_match_p.exit.thread:                         ; preds = %._crit_edge.i, %37, %3
  tail call void (ptr, ...) @rb_warn(ptr noundef nonnull @.str.100, i32 noundef %1, ptr noundef %0) #28
  tail call void (ptr, ...) @rb_warn(ptr noundef nonnull @.str.101, i32 noundef 21, ptr noundef nonnull @.str.99) #28
  br label %48

48:                                               ; preds = %name_match_p.exit.thread, %name_match_p.exit
  ret void
}